
Heisser Draht.elf:     file format elf32-avr

Sections:
Idx Name          Size      VMA       LMA       File off  Algn
  0 .data         00000004  00800100  00000450  000004e4  2**0
                  CONTENTS, ALLOC, LOAD, DATA
  1 .text         00000450  00000000  00000000  00000094  2**1
                  CONTENTS, ALLOC, LOAD, READONLY, CODE
  2 .bss          0000002b  00800104  00800104  000004e8  2**0
                  ALLOC
  3 .comment      00000030  00000000  00000000  000004e8  2**0
                  CONTENTS, READONLY

Disassembly of section .text:

00000000 <__vectors>:
   0:	0c 94 b4 00 	jmp	0x168	; 0x168 <__ctors_end>
   4:	0c 94 d1 00 	jmp	0x1a2	; 0x1a2 <__bad_interrupt>
   8:	0c 94 d1 00 	jmp	0x1a2	; 0x1a2 <__bad_interrupt>
   c:	0c 94 d1 00 	jmp	0x1a2	; 0x1a2 <__bad_interrupt>
  10:	0c 94 d1 00 	jmp	0x1a2	; 0x1a2 <__bad_interrupt>
  14:	0c 94 d1 00 	jmp	0x1a2	; 0x1a2 <__bad_interrupt>
  18:	0c 94 d1 00 	jmp	0x1a2	; 0x1a2 <__bad_interrupt>
  1c:	0c 94 01 02 	jmp	0x402	; 0x402 <__vector_7>
  20:	0c 94 d1 00 	jmp	0x1a2	; 0x1a2 <__bad_interrupt>
  24:	0c 94 d1 00 	jmp	0x1a2	; 0x1a2 <__bad_interrupt>
  28:	0c 94 d1 00 	jmp	0x1a2	; 0x1a2 <__bad_interrupt>
  2c:	0c 94 8e 01 	jmp	0x31c	; 0x31c <__vector_11>
  30:	0c 94 d1 00 	jmp	0x1a2	; 0x1a2 <__bad_interrupt>
  34:	0c 94 d1 00 	jmp	0x1a2	; 0x1a2 <__bad_interrupt>
  38:	0c 94 d1 00 	jmp	0x1a2	; 0x1a2 <__bad_interrupt>
  3c:	0c 94 d1 00 	jmp	0x1a2	; 0x1a2 <__bad_interrupt>
  40:	0c 94 d1 00 	jmp	0x1a2	; 0x1a2 <__bad_interrupt>
  44:	0c 94 d1 00 	jmp	0x1a2	; 0x1a2 <__bad_interrupt>
  48:	0c 94 d1 00 	jmp	0x1a2	; 0x1a2 <__bad_interrupt>
  4c:	0c 94 d1 00 	jmp	0x1a2	; 0x1a2 <__bad_interrupt>
  50:	0c 94 d1 00 	jmp	0x1a2	; 0x1a2 <__bad_interrupt>
  54:	0c 94 d1 00 	jmp	0x1a2	; 0x1a2 <__bad_interrupt>
  58:	0c 94 d1 00 	jmp	0x1a2	; 0x1a2 <__bad_interrupt>
  5c:	0c 94 d1 00 	jmp	0x1a2	; 0x1a2 <__bad_interrupt>
  60:	0c 94 d1 00 	jmp	0x1a2	; 0x1a2 <__bad_interrupt>
  64:	0c 94 d1 00 	jmp	0x1a2	; 0x1a2 <__bad_interrupt>

00000068 <__trampolines_end>:
  68:	00 03       	mulsu	r16, r16
  6a:	06 09       	sbc	r16, r6
  6c:	0c 0f       	add	r16, r28
  6e:	12 15       	cp	r17, r2
  70:	18 1c       	adc	r1, r8
  72:	1f 22       	and	r1, r31
  74:	25 28       	or	r2, r5
  76:	2b 2e       	mov	r2, r27
  78:	30 33       	cpi	r19, 0x30	; 48
  7a:	36 39       	cpi	r19, 0x96	; 150
  7c:	3c 3f       	cpi	r19, 0xFC	; 252
  7e:	41 44       	sbci	r20, 0x41	; 65
  80:	47 49       	sbci	r20, 0x97	; 151
  82:	4c 4e       	sbci	r20, 0xEC	; 236
  84:	51 53       	subi	r21, 0x31	; 49
  86:	55 58       	subi	r21, 0x85	; 133
  88:	5a 5c       	subi	r21, 0xCA	; 202
  8a:	5e 60       	ori	r21, 0x0E	; 14
  8c:	62 64       	ori	r22, 0x42	; 66
  8e:	66 68       	ori	r22, 0x86	; 134
  90:	6a 6c       	ori	r22, 0xCA	; 202
  92:	6d 6f       	ori	r22, 0xFD	; 253
  94:	70 72       	andi	r23, 0x20	; 32
  96:	73 75       	andi	r23, 0x53	; 83
  98:	76 77       	andi	r23, 0x76	; 118
  9a:	78 79       	andi	r23, 0x98	; 152
  9c:	7a 7b       	andi	r23, 0xBA	; 186
  9e:	7c 7c       	andi	r23, 0xCC	; 204
  a0:	7d 7e       	andi	r23, 0xED	; 237
  a2:	7e 7f       	andi	r23, 0xFE	; 254
  a4:	7f 7f       	andi	r23, 0xFF	; 255
  a6:	7f 7f       	andi	r23, 0xFF	; 255
  a8:	7f 7f       	andi	r23, 0xFF	; 255
  aa:	7f 7f       	andi	r23, 0xFF	; 255
  ac:	7f 7f       	andi	r23, 0xFF	; 255
  ae:	7e 7e       	andi	r23, 0xEE	; 238
  b0:	7d 7c       	andi	r23, 0xCD	; 205
  b2:	7c 7b       	andi	r23, 0xBC	; 188
  b4:	7a 79       	andi	r23, 0x9A	; 154
  b6:	78 77       	andi	r23, 0x78	; 120
  b8:	76 75       	andi	r23, 0x56	; 86
  ba:	73 72       	andi	r23, 0x23	; 35
  bc:	70 6f       	ori	r23, 0xF0	; 240
  be:	6d 6c       	ori	r22, 0xCD	; 205
  c0:	6a 68       	ori	r22, 0x8A	; 138
  c2:	66 64       	ori	r22, 0x46	; 70
  c4:	62 60       	ori	r22, 0x02	; 2
  c6:	5e 5c       	subi	r21, 0xCE	; 206
  c8:	5a 58       	subi	r21, 0x8A	; 138
  ca:	55 53       	subi	r21, 0x35	; 53
  cc:	51 4e       	sbci	r21, 0xE1	; 225
  ce:	4c 49       	sbci	r20, 0x9C	; 156
  d0:	47 44       	sbci	r20, 0x47	; 71
  d2:	41 3f       	cpi	r20, 0xF1	; 241
  d4:	3c 39       	cpi	r19, 0x9C	; 156
  d6:	36 33       	cpi	r19, 0x36	; 54
  d8:	30 2e       	mov	r3, r16
  da:	2b 28       	or	r2, r11
  dc:	25 22       	and	r2, r21
  de:	1f 1c       	adc	r1, r15
  e0:	18 15       	cp	r17, r8
  e2:	12 0f       	add	r17, r18
  e4:	0c 09       	sbc	r16, r12
  e6:	06 03       	mulsu	r16, r22
  e8:	00 fd       	sbrc	r16, 0
  ea:	fa f7       	brpl	.-2      	; 0xea <__trampolines_end+0x82>
  ec:	f4 f1       	brlt	.+124    	; 0x16a <__ctors_end+0x2>
  ee:	ee eb       	ldi	r30, 0xBE	; 190
  f0:	e8 e4       	ldi	r30, 0x48	; 72
  f2:	e1 de       	rcall	.-574    	; 0xfffffeb6 <__eeprom_end+0xff7efeb6>
  f4:	db d8       	rcall	.-3658   	; 0xfffff2ac <__eeprom_end+0xff7ef2ac>
  f6:	d5 d2       	rcall	.+1450   	; 0x6a2 <__data_load_end+0x24e>
  f8:	d0 cd       	rjmp	.-1120   	; 0xfffffc9a <__eeprom_end+0xff7efc9a>
  fa:	ca c7       	rjmp	.+3988   	; 0x1090 <__stack+0x791>
  fc:	c4 c1       	rjmp	.+904    	; 0x486 <__data_load_end+0x32>
  fe:	bf bc       	out	0x2f, r11	; 47
 100:	b9 b7       	in	r27, 0x39	; 57
 102:	b4 b2       	in	r11, 0x14	; 20
 104:	af ad       	ldd	r26, Y+63	; 0x3f
 106:	ab a8       	ldd	r10, Y+51	; 0x33
 108:	a6 a4       	ldd	r10, Z+46	; 0x2e
 10a:	a2 a0       	ldd	r10, Z+34	; 0x22
 10c:	9e 9c       	mul	r9, r14
 10e:	9a 98       	cbi	0x13, 2	; 19
 110:	96 94       	lsr	r9
 112:	93 91       	.word	0x9193	; ????
 114:	90 8e       	std	Z+24, r9	; 0x18
 116:	8d 8b       	std	Y+21, r24	; 0x15
 118:	8a 89       	ldd	r24, Y+18	; 0x12
 11a:	88 87       	std	Y+8, r24	; 0x08
 11c:	86 85       	ldd	r24, Z+14	; 0x0e
 11e:	84 84       	ldd	r8, Z+12	; 0x0c
 120:	83 82       	std	Z+3, r8	; 0x03
 122:	82 81       	ldd	r24, Z+2	; 0x02
 124:	81 81       	ldd	r24, Z+1	; 0x01
 126:	81 81       	ldd	r24, Z+1	; 0x01
 128:	80 81       	ld	r24, Z
 12a:	81 81       	ldd	r24, Z+1	; 0x01
 12c:	81 81       	ldd	r24, Z+1	; 0x01
 12e:	82 82       	std	Z+2, r8	; 0x02
 130:	83 84       	ldd	r8, Z+11	; 0x0b
 132:	84 85       	ldd	r24, Z+12	; 0x0c
 134:	86 87       	std	Z+14, r24	; 0x0e
 136:	88 89       	ldd	r24, Y+16	; 0x10
 138:	8a 8b       	std	Y+18, r24	; 0x12
 13a:	8d 8e       	std	Y+29, r8	; 0x1d
 13c:	90 91 93 94 	lds	r25, 0x9493
 140:	96 98       	cbi	0x12, 6	; 18
 142:	9a 9c       	mul	r9, r10
 144:	9e a0       	ldd	r9, Y+38	; 0x26
 146:	a2 a4       	ldd	r10, Z+42	; 0x2a
 148:	a6 a8       	ldd	r10, Z+54	; 0x36
 14a:	ab ad       	ldd	r26, Y+59	; 0x3b
 14c:	af b2       	in	r10, 0x1f	; 31
 14e:	b4 b7       	in	r27, 0x34	; 52
 150:	b9 bc       	out	0x29, r11	; 41
 152:	bf c1       	rjmp	.+894    	; 0x4d2 <__data_load_end+0x7e>
 154:	c4 c7       	rjmp	.+3976   	; 0x10de <__stack+0x7df>
 156:	ca cd       	rjmp	.-1132   	; 0xfffffcec <__eeprom_end+0xff7efcec>
 158:	d0 d2       	rcall	.+1440   	; 0x6fa <__data_load_end+0x2a6>
 15a:	d5 d8       	rcall	.-3670   	; 0xfffff306 <__eeprom_end+0xff7ef306>
 15c:	db de       	rcall	.-586    	; 0xffffff14 <__eeprom_end+0xff7eff14>
 15e:	e1 e4       	ldi	r30, 0x41	; 65
 160:	e8 eb       	ldi	r30, 0xB8	; 184
 162:	ee f1       	brts	.+122    	; 0x1de <led_update+0x4>
 164:	f4 f7       	brge	.-4      	; 0x162 <__trampolines_end+0xfa>
 166:	fa fd       	.word	0xfdfa	; ????

00000168 <__ctors_end>:
 168:	11 24       	eor	r1, r1
 16a:	1f be       	out	0x3f, r1	; 63
 16c:	cf ef       	ldi	r28, 0xFF	; 255
 16e:	d8 e0       	ldi	r29, 0x08	; 8
 170:	de bf       	out	0x3e, r29	; 62
 172:	cd bf       	out	0x3d, r28	; 61

00000174 <__do_copy_data>:
 174:	11 e0       	ldi	r17, 0x01	; 1
 176:	a0 e0       	ldi	r26, 0x00	; 0
 178:	b1 e0       	ldi	r27, 0x01	; 1
 17a:	e0 e5       	ldi	r30, 0x50	; 80
 17c:	f4 e0       	ldi	r31, 0x04	; 4
 17e:	02 c0       	rjmp	.+4      	; 0x184 <__do_copy_data+0x10>
 180:	05 90       	lpm	r0, Z+
 182:	0d 92       	st	X+, r0
 184:	a4 30       	cpi	r26, 0x04	; 4
 186:	b1 07       	cpc	r27, r17
 188:	d9 f7       	brne	.-10     	; 0x180 <__do_copy_data+0xc>

0000018a <__do_clear_bss>:
 18a:	21 e0       	ldi	r18, 0x01	; 1
 18c:	a4 e0       	ldi	r26, 0x04	; 4
 18e:	b1 e0       	ldi	r27, 0x01	; 1
 190:	01 c0       	rjmp	.+2      	; 0x194 <.do_clear_bss_start>

00000192 <.do_clear_bss_loop>:
 192:	1d 92       	st	X+, r1

00000194 <.do_clear_bss_start>:
 194:	af 32       	cpi	r26, 0x2F	; 47
 196:	b2 07       	cpc	r27, r18
 198:	e1 f7       	brne	.-8      	; 0x192 <.do_clear_bss_loop>
 19a:	0e 94 fd 00 	call	0x1fa	; 0x1fa <main>
 19e:	0c 94 26 02 	jmp	0x44c	; 0x44c <_exit>

000001a2 <__bad_interrupt>:
 1a2:	0c 94 00 00 	jmp	0	; 0x0 <__vectors>

000001a6 <led_init>:
 1a6:	40 9a       	sbi	0x08, 0	; 8
 1a8:	8c e0       	ldi	r24, 0x0C	; 12
 1aa:	9f ef       	ldi	r25, 0xFF	; 255
 1ac:	9e bd       	out	0x2e, r25	; 46
 1ae:	0d b4       	in	r0, 0x2d	; 45
 1b0:	07 fe       	sbrs	r0, 7
 1b2:	fd cf       	rjmp	.-6      	; 0x1ae <led_init+0x8>
 1b4:	81 50       	subi	r24, 0x01	; 1
 1b6:	d1 f7       	brne	.-12     	; 0x1ac <led_init+0x6>
 1b8:	41 9a       	sbi	0x08, 1	; 8
 1ba:	88 b1       	in	r24, 0x08	; 8
 1bc:	82 70       	andi	r24, 0x02	; 2
 1be:	88 b9       	out	0x08, r24	; 8
 1c0:	40 98       	cbi	0x08, 0	; 8
 1c2:	88 e1       	ldi	r24, 0x18	; 24
 1c4:	1e bc       	out	0x2e, r1	; 46
 1c6:	0d b4       	in	r0, 0x2d	; 45
 1c8:	07 fe       	sbrs	r0, 7
 1ca:	fd cf       	rjmp	.-6      	; 0x1c6 <led_init+0x20>
 1cc:	81 50       	subi	r24, 0x01	; 1
 1ce:	d1 f7       	brne	.-12     	; 0x1c4 <led_init+0x1e>
 1d0:	41 9a       	sbi	0x08, 1	; 8
 1d2:	88 b1       	in	r24, 0x08	; 8
 1d4:	82 70       	andi	r24, 0x02	; 2
 1d6:	88 b9       	out	0x08, r24	; 8
 1d8:	08 95       	ret

000001da <led_update>:
 1da:	e3 e1       	ldi	r30, 0x13	; 19
 1dc:	f1 e0       	ldi	r31, 0x01	; 1
 1de:	81 91       	ld	r24, Z+
 1e0:	8e bd       	out	0x2e, r24	; 46
 1e2:	0d b4       	in	r0, 0x2d	; 45
 1e4:	07 fe       	sbrs	r0, 7
 1e6:	fd cf       	rjmp	.-6      	; 0x1e2 <led_update+0x8>
 1e8:	81 e0       	ldi	r24, 0x01	; 1
 1ea:	eb 32       	cpi	r30, 0x2B	; 43
 1ec:	f8 07       	cpc	r31, r24
 1ee:	b9 f7       	brne	.-18     	; 0x1de <led_update+0x4>
 1f0:	41 9a       	sbi	0x08, 1	; 8
 1f2:	88 b1       	in	r24, 0x08	; 8
 1f4:	82 70       	andi	r24, 0x02	; 2
 1f6:	88 b9       	out	0x08, r24	; 8
 1f8:	08 95       	ret

000001fa <main>:
 1fa:	85 e2       	ldi	r24, 0x25	; 37
 1fc:	84 b9       	out	0x04, r24	; 4
 1fe:	8f e1       	ldi	r24, 0x1F	; 31
 200:	87 b9       	out	0x07, r24	; 7
 202:	82 e6       	ldi	r24, 0x62	; 98
 204:	8a b9       	out	0x0a, r24	; 10
 206:	15 b8       	out	0x05, r1	; 5
 208:	18 b8       	out	0x08, r1	; 8
 20a:	1b b8       	out	0x0b, r1	; 11
 20c:	83 ea       	ldi	r24, 0xA3	; 163
 20e:	84 bd       	out	0x24, r24	; 36
 210:	21 e0       	ldi	r18, 0x01	; 1
 212:	25 bd       	out	0x25, r18	; 37
 214:	8f e7       	ldi	r24, 0x7F	; 127
 216:	87 bd       	out	0x27, r24	; 39
 218:	88 bd       	out	0x28, r24	; 40
 21a:	10 92 80 00 	sts	0x0080, r1
 21e:	89 e0       	ldi	r24, 0x09	; 9
 220:	80 93 81 00 	sts	0x0081, r24
 224:	82 e8       	ldi	r24, 0x82	; 130
 226:	96 e0       	ldi	r25, 0x06	; 6
 228:	90 93 89 00 	sts	0x0089, r25
 22c:	80 93 88 00 	sts	0x0088, r24
 230:	82 e0       	ldi	r24, 0x02	; 2
 232:	80 93 6f 00 	sts	0x006F, r24
 236:	80 93 b0 00 	sts	0x00B0, r24
 23a:	97 e0       	ldi	r25, 0x07	; 7
 23c:	90 93 b1 00 	sts	0x00B1, r25
 240:	9c e9       	ldi	r25, 0x9C	; 156
 242:	90 93 b3 00 	sts	0x00B3, r25
 246:	80 93 70 00 	sts	0x0070, r24
 24a:	10 92 c0 00 	sts	0x00C0, r1
 24e:	88 e9       	ldi	r24, 0x98	; 152
 250:	80 93 c1 00 	sts	0x00C1, r24
 254:	86 e0       	ldi	r24, 0x06	; 6
 256:	80 93 c2 00 	sts	0x00C2, r24
 25a:	83 e3       	ldi	r24, 0x33	; 51
 25c:	90 e0       	ldi	r25, 0x00	; 0
 25e:	90 93 c5 00 	sts	0x00C5, r25
 262:	80 93 c4 00 	sts	0x00C4, r24
 266:	80 e5       	ldi	r24, 0x50	; 80
 268:	8c bd       	out	0x2c, r24	; 44
 26a:	2d bd       	out	0x2d, r18	; 45
 26c:	1e bc       	out	0x2e, r1	; 46
 26e:	85 e0       	ldi	r24, 0x05	; 5
 270:	80 93 7c 00 	sts	0x007C, r24
 274:	80 ec       	ldi	r24, 0xC0	; 192
 276:	80 93 7a 00 	sts	0x007A, r24
 27a:	80 91 7a 00 	lds	r24, 0x007A
 27e:	86 fd       	sbrc	r24, 6
 280:	fc cf       	rjmp	.-8      	; 0x27a <main+0x80>
 282:	80 91 78 00 	lds	r24, 0x0078
 286:	90 91 79 00 	lds	r25, 0x0079
 28a:	10 92 2b 01 	sts	0x012B, r1
 28e:	10 92 2c 01 	sts	0x012C, r1
 292:	10 92 2d 01 	sts	0x012D, r1
 296:	10 92 2e 01 	sts	0x012E, r1
 29a:	88 e1       	ldi	r24, 0x18	; 24
 29c:	e3 e1       	ldi	r30, 0x13	; 19
 29e:	f1 e0       	ldi	r31, 0x01	; 1
 2a0:	df 01       	movw	r26, r30
 2a2:	1d 92       	st	X+, r1
 2a4:	8a 95       	dec	r24
 2a6:	e9 f7       	brne	.-6      	; 0x2a2 <main+0xa8>
 2a8:	0e 94 d3 00 	call	0x1a6	; 0x1a6 <led_init>
 2ac:	78 94       	sei
 2ae:	31 e0       	ldi	r19, 0x01	; 1
 2b0:	40 ec       	ldi	r20, 0xC0	; 192
 2b2:	22 e0       	ldi	r18, 0x02	; 2
 2b4:	4a 99       	sbic	0x09, 2	; 9
 2b6:	25 c0       	rjmp	.+74     	; 0x302 <main+0x108>
 2b8:	10 92 0c 01 	sts	0x010C, r1
 2bc:	44 9a       	sbi	0x08, 4	; 8
 2be:	40 93 7a 00 	sts	0x007A, r20
 2c2:	80 91 7a 00 	lds	r24, 0x007A
 2c6:	86 fd       	sbrc	r24, 6
 2c8:	fc cf       	rjmp	.-8      	; 0x2c2 <main+0xc8>
 2ca:	80 91 78 00 	lds	r24, 0x0078
 2ce:	90 91 79 00 	lds	r25, 0x0079
 2d2:	96 95       	lsr	r25
 2d4:	87 95       	ror	r24
 2d6:	96 95       	lsr	r25
 2d8:	87 95       	ror	r24
 2da:	89 3c       	cpi	r24, 0xC9	; 201
 2dc:	18 f0       	brcs	.+6      	; 0x2e4 <main+0xea>
 2de:	10 92 02 01 	sts	0x0102, r1
 2e2:	02 c0       	rjmp	.+4      	; 0x2e8 <main+0xee>
 2e4:	20 93 02 01 	sts	0x0102, r18
 2e8:	10 92 0e 01 	sts	0x010E, r1
 2ec:	10 92 0d 01 	sts	0x010D, r1
 2f0:	10 92 0f 01 	sts	0x010F, r1
 2f4:	10 92 10 01 	sts	0x0110, r1
 2f8:	10 92 11 01 	sts	0x0111, r1
 2fc:	10 92 12 01 	sts	0x0112, r1
 300:	06 c0       	rjmp	.+12     	; 0x30e <main+0x114>
 302:	80 91 0c 01 	lds	r24, 0x010C
 306:	82 30       	cpi	r24, 0x02	; 2
 308:	11 f0       	breq	.+4      	; 0x30e <main+0x114>
 30a:	30 93 0c 01 	sts	0x010C, r19
 30e:	4b 99       	sbic	0x09, 3	; 9
 310:	03 c0       	rjmp	.+6      	; 0x318 <main+0x11e>
 312:	20 93 0c 01 	sts	0x010C, r18
 316:	ce cf       	rjmp	.-100    	; 0x2b4 <main+0xba>
 318:	89 b1       	in	r24, 0x09	; 9
 31a:	cc cf       	rjmp	.-104    	; 0x2b4 <main+0xba>

0000031c <__vector_11>:
 31c:	1f 92       	push	r1
 31e:	0f 92       	push	r0
 320:	0f b6       	in	r0, 0x3f	; 63
 322:	0f 92       	push	r0
 324:	11 24       	eor	r1, r1
 326:	2f 93       	push	r18
 328:	3f 93       	push	r19
 32a:	4f 93       	push	r20
 32c:	5f 93       	push	r21
 32e:	6f 93       	push	r22
 330:	7f 93       	push	r23
 332:	8f 93       	push	r24
 334:	9f 93       	push	r25
 336:	af 93       	push	r26
 338:	bf 93       	push	r27
 33a:	cf 93       	push	r28
 33c:	ef 93       	push	r30
 33e:	ff 93       	push	r31
 340:	80 91 01 01 	lds	r24, 0x0101
 344:	88 23       	and	r24, r24
 346:	21 f0       	breq	.+8      	; 0x350 <__vector_11+0x34>
 348:	81 50       	subi	r24, 0x01	; 1
 34a:	80 93 01 01 	sts	0x0101, r24
 34e:	0e c0       	rjmp	.+28     	; 0x36c <__vector_11+0x50>
 350:	42 9a       	sbi	0x08, 2	; 8
 352:	82 e0       	ldi	r24, 0x02	; 2
 354:	80 93 01 01 	sts	0x0101, r24
 358:	c0 91 00 01 	lds	r28, 0x0100
 35c:	c1 11       	cpse	r28, r1
 35e:	02 c0       	rjmp	.+4      	; 0x364 <__vector_11+0x48>
 360:	0e 94 ed 00 	call	0x1da	; 0x1da <led_update>
 364:	c1 50       	subi	r28, 0x01	; 1
 366:	c0 93 00 01 	sts	0x0100, r28
 36a:	42 98       	cbi	0x08, 2	; 8
 36c:	e0 91 0a 01 	lds	r30, 0x010A
 370:	f0 91 0b 01 	lds	r31, 0x010B
 374:	80 91 06 01 	lds	r24, 0x0106
 378:	90 91 07 01 	lds	r25, 0x0107
 37c:	e8 0f       	add	r30, r24
 37e:	f9 1f       	adc	r31, r25
 380:	f0 93 07 01 	sts	0x0107, r31
 384:	e0 93 06 01 	sts	0x0106, r30
 388:	20 91 08 01 	lds	r18, 0x0108
 38c:	30 91 09 01 	lds	r19, 0x0109
 390:	80 91 04 01 	lds	r24, 0x0104
 394:	90 91 05 01 	lds	r25, 0x0105
 398:	82 0f       	add	r24, r18
 39a:	93 1f       	adc	r25, r19
 39c:	90 93 05 01 	sts	0x0105, r25
 3a0:	80 93 04 01 	sts	0x0104, r24
 3a4:	ef 2f       	mov	r30, r31
 3a6:	ff 27       	eor	r31, r31
 3a8:	e8 59       	subi	r30, 0x98	; 152
 3aa:	ff 4f       	sbci	r31, 0xFF	; 255
 3ac:	e4 91       	lpm	r30, Z
 3ae:	ff 27       	eor	r31, r31
 3b0:	e7 fd       	sbrc	r30, 7
 3b2:	f0 95       	com	r31
 3b4:	fe 5f       	subi	r31, 0xFE	; 254
 3b6:	f5 95       	asr	r31
 3b8:	e7 95       	ror	r30
 3ba:	f5 95       	asr	r31
 3bc:	e7 95       	ror	r30
 3be:	e7 bd       	out	0x27, r30	; 39
 3c0:	e0 91 05 01 	lds	r30, 0x0105
 3c4:	f0 e0       	ldi	r31, 0x00	; 0
 3c6:	e8 59       	subi	r30, 0x98	; 152
 3c8:	ff 4f       	sbci	r31, 0xFF	; 255
 3ca:	e4 91       	lpm	r30, Z
 3cc:	ff 27       	eor	r31, r31
 3ce:	e7 fd       	sbrc	r30, 7
 3d0:	f0 95       	com	r31
 3d2:	fe 5f       	subi	r31, 0xFE	; 254
 3d4:	f5 95       	asr	r31
 3d6:	e7 95       	ror	r30
 3d8:	f5 95       	asr	r31
 3da:	e7 95       	ror	r30
 3dc:	e8 bd       	out	0x28, r30	; 40
 3de:	ff 91       	pop	r31
 3e0:	ef 91       	pop	r30
 3e2:	cf 91       	pop	r28
 3e4:	bf 91       	pop	r27
 3e6:	af 91       	pop	r26
 3e8:	9f 91       	pop	r25
 3ea:	8f 91       	pop	r24
 3ec:	7f 91       	pop	r23
 3ee:	6f 91       	pop	r22
 3f0:	5f 91       	pop	r21
 3f2:	4f 91       	pop	r20
 3f4:	3f 91       	pop	r19
 3f6:	2f 91       	pop	r18
 3f8:	0f 90       	pop	r0
 3fa:	0f be       	out	0x3f, r0	; 63
 3fc:	0f 90       	pop	r0
 3fe:	1f 90       	pop	r1
 400:	18 95       	reti

00000402 <__vector_7>:
 402:	1f 92       	push	r1
 404:	0f 92       	push	r0
 406:	0f b6       	in	r0, 0x3f	; 63
 408:	0f 92       	push	r0
 40a:	11 24       	eor	r1, r1
 40c:	8f 93       	push	r24
 40e:	9f 93       	push	r25
 410:	af 93       	push	r26
 412:	bf 93       	push	r27
 414:	80 91 2b 01 	lds	r24, 0x012B
 418:	90 91 2c 01 	lds	r25, 0x012C
 41c:	a0 91 2d 01 	lds	r26, 0x012D
 420:	b0 91 2e 01 	lds	r27, 0x012E
 424:	01 96       	adiw	r24, 0x01	; 1
 426:	a1 1d       	adc	r26, r1
 428:	b1 1d       	adc	r27, r1
 42a:	80 93 2b 01 	sts	0x012B, r24
 42e:	90 93 2c 01 	sts	0x012C, r25
 432:	a0 93 2d 01 	sts	0x012D, r26
 436:	b0 93 2e 01 	sts	0x012E, r27
 43a:	bf 91       	pop	r27
 43c:	af 91       	pop	r26
 43e:	9f 91       	pop	r25
 440:	8f 91       	pop	r24
 442:	0f 90       	pop	r0
 444:	0f be       	out	0x3f, r0	; 63
 446:	0f 90       	pop	r0
 448:	1f 90       	pop	r1
 44a:	18 95       	reti

0000044c <_exit>:
 44c:	f8 94       	cli

0000044e <__stop_program>:
 44e:	ff cf       	rjmp	.-2      	; 0x44e <__stop_program>
